; Function Attrs: mustprogress nofree norecurse nosync nounwind willreturn memory(read, inaccessiblemem: none) uwtable
define noundef range(i32 -32768, 32768) i32 @_ZN5ImGui21TableGetHoveredColumnEv() local_unnamed_addr #13 {
  %1 = load ptr, ptr @GImGui, align 8, !tbaa !3
  %2 = getelementptr inbounds nuw i8, ptr %1, i64 8640
  %3 = load ptr, ptr %2, align 8, !tbaa !266
  %.not = icmp eq ptr %3, null
  br i1 %.not, label %8, label %4

4:                                                ; preds = %0
  %5 = getelementptr inbounds nuw i8, ptr %3, i64 522
  %6 = load i16, ptr %5, align 2, !tbaa !303
  %7 = sext i16 %6 to i32
  br label %8

8:                                                ; preds = %0, %4
  %.0 = phi i32 [ %7, %4 ], [ -1, %0 ]
  ret i32 %.0
}